; Function Attrs: nounwind uwtable
define ptr @l_Lean_ofExcept___at___private_Lean_Elab_Tactic_Grind_0__Lean_Elab_Tactic_elabFallback_unsafe__3___spec__2___rarg(ptr noundef %0, ptr noundef %1, ptr noundef %2, ptr noundef %3, ptr noundef %4, ptr noundef %5, ptr noundef %6, ptr noundef %7) local_unnamed_addr #0 {
  %9 = ptrtoint ptr %0 to i64
  %10 = and i64 %9, 1
  %.not.i21 = icmp eq i64 %10, 0
  br i1 %.not.i21, label %14, label %11

11:                                               ; preds = %8
  %12 = lshr i64 %9, 1
  %13 = trunc i64 %12 to i32
  br label %lean_obj_tag.exit

14:                                               ; preds = %8
  %15 = getelementptr i8, ptr %0, i64 4
  %.val.i = load i32, ptr %15, align 4
  %16 = lshr i32 %.val.i, 24
  br label %lean_obj_tag.exit

lean_obj_tag.exit:                                ; preds = %11, %14
  %.0.i = phi i32 [ %13, %11 ], [ %16, %14 ]
  %17 = icmp eq i32 %.0.i, 0
  br i1 %17, label %18, label %23

18:                                               ; preds = %lean_obj_tag.exit
  %19 = getelementptr inbounds nuw i8, ptr %0, i64 8
  %20 = load ptr, ptr %19, align 8, !tbaa !4
  %21 = tail call ptr @l_Lean_stringToMessageData(ptr noundef %20) #5
  %22 = tail call ptr @l_Lean_throwError___at___private_Lean_Elab_Tactic_Grind_0__Lean_Elab_Tactic_elabFallback_unsafe__3___spec__3___rarg(ptr noundef %21, ptr noundef %1, ptr noundef %2, ptr noundef %3, ptr noundef %4, ptr noundef %5, ptr noundef %6, ptr noundef %7)
  br label %49

23:                                               ; preds = %lean_obj_tag.exit
  %24 = ptrtoint ptr %1 to i64
  %25 = and i64 %24, 1
  %.not = icmp eq i64 %25, 0
  br i1 %.not, label %26, label %lean_dec.exit

26:                                               ; preds = %23
  %27 = load i32, ptr %1, align 4, !tbaa !8
  %28 = icmp sgt i32 %27, 1
  br i1 %28, label %29, label %31, !prof !11

29:                                               ; preds = %26
  %30 = add nsw i32 %27, -1
  store i32 %30, ptr %1, align 4, !tbaa !8
  br label %lean_dec.exit

31:                                               ; preds = %26
  %.not.i = icmp eq i32 %27, 0
  br i1 %.not.i, label %lean_dec.exit, label %32

32:                                               ; preds = %31
  tail call void @lean_dec_ref_cold(ptr noundef nonnull %1) #5
  br label %lean_dec.exit

lean_dec.exit:                                    ; preds = %32, %31, %29, %23
  %33 = getelementptr inbounds nuw i8, ptr %0, i64 8
  %34 = load ptr, ptr %33, align 8, !tbaa !4
  %35 = ptrtoint ptr %34 to i64
  %36 = and i64 %35, 1
  %.not24 = icmp eq i64 %36, 0
  br i1 %.not24, label %37, label %lean_inc.exit

37:                                               ; preds = %lean_dec.exit
  %.val.i22 = load i32, ptr %34, align 4, !tbaa !8
  %38 = icmp sgt i32 %.val.i22, 0
  br i1 %38, label %39, label %41, !prof !11

39:                                               ; preds = %37
  %40 = add nuw i32 %.val.i22, 1
  store i32 %40, ptr %34, align 4, !tbaa !8
  br label %lean_inc.exit

41:                                               ; preds = %37
  %.not.i23 = icmp eq i32 %.val.i22, 0
  br i1 %.not.i23, label %lean_inc.exit, label %42

42:                                               ; preds = %41
  tail call void @lean_inc_ref_cold(ptr noundef nonnull %34) #5
  br label %lean_inc.exit

lean_inc.exit:                                    ; preds = %42, %41, %39, %lean_dec.exit
  tail call void @lean_inc_heartbeat() #5
  %43 = tail call noalias ptr @mi_malloc_small(i64 noundef 24) #5
  %44 = icmp eq ptr %43, null
  br i1 %44, label %45, label %lean_alloc_ctor.exit

45:                                               ; preds = %lean_inc.exit
  tail call void @lean_internal_panic_out_of_memory() #6
  unreachable

lean_alloc_ctor.exit:                             ; preds = %lean_inc.exit
  %46 = getelementptr inbounds nuw i8, ptr %43, i64 4
  store i32 1, ptr %43, align 4, !tbaa !8
  store i32 131096, ptr %46, align 4
  %47 = getelementptr inbounds nuw i8, ptr %43, i64 8
  store ptr %34, ptr %47, align 8, !tbaa !4
  %48 = getelementptr inbounds nuw i8, ptr %43, i64 16
  store ptr %7, ptr %48, align 8, !tbaa !4
  br label %49

49:                                               ; preds = %lean_alloc_ctor.exit, %18
  %.0 = phi ptr [ %22, %18 ], [ %43, %lean_alloc_ctor.exit ]
  ret ptr %.0
}